target datalayout = "e-m:e-p270:32:32-p271:32:32-p272:64:64-i64:64-i128:128-f80:128-n8:16:32:64-S128"
target triple = "x86_64-pc-linux-gnu"

@.str.186 = private unnamed_addr constant [15 x i8] c"<UnknownToken>\00", align 1

; Function Attrs: mustprogress nounwind uwtable
define noundef ptr @_ZN5boost4wave15get_token_valueENS0_8token_idE(i32 noundef %0) #2 {
  %2 = alloca i32, align 4
  %3 = alloca i32, align 4
  store i32 %0, ptr %2, align 4, !tbaa !3
  call void @llvm.lifetime.start.p0(i64 4, ptr %3) #13
  %4 = load i32, ptr %2, align 4, !tbaa !3
  %5 = and i32 %4, -2147221505
  %6 = sub i32 %5, 256
  store i32 %6, ptr %3, align 4, !tbaa !7
  %7 = load i32, ptr %3, align 4, !tbaa !7
  %8 = icmp ult i32 %7, 186
  br i1 %8, label %9, label %14

9:                                                ; preds = %1
  %10 = load i32, ptr %3, align 4, !tbaa !7
  %11 = zext i32 %10 to i64
  %12 = getelementptr inbounds nuw [186 x ptr], ptr @_ZZN5boost4wave15get_token_valueENS0_8token_idEE10tok_values, i64 0, i64 %11
  %13 = load ptr, ptr %12, align 8, !tbaa !9
  br label %15

14:                                               ; preds = %1
  br label %15

15:                                               ; preds = %14, %9
  %16 = phi ptr [ %13, %9 ], [ @.str.186, %14 ]
  call void @llvm.lifetime.end.p0(i64 4, ptr %3) #13
  ret ptr %16
}