; Function Attrs: mustprogress nofree norecurse nosync nounwind willreturn memory(none) uwtable
define noundef ptr @_ZN5boost4wave15get_token_valueENS0_8token_idE(i32 noundef %0) local_unnamed_addr #2 {
  %2 = and i32 %0, -2147221505
  %3 = add i32 %2, -256
  %4 = icmp ult i32 %3, 186
  br i1 %4, label %5, label %9

5:                                                ; preds = %1
  %6 = zext nneg i32 %3 to i64
  %7 = getelementptr inbounds nuw [186 x ptr], ptr @_ZZN5boost4wave15get_token_valueENS0_8token_idEE10tok_values, i64 0, i64 %6
  %8 = load ptr, ptr %7, align 8, !tbaa !3
  br label %9

9:                                                ; preds = %1, %5
  %10 = phi ptr [ %8, %5 ], [ @.str.186, %1 ]
  ret ptr %10
}